target datalayout = "e-m:e-p270:32:32-p271:32:32-p272:64:64-i64:64-i128:128-f80:128-n8:16:32:64-S128"
target triple = "x86_64-pc-linux-gnu"

%struct.OSQPMatrix_ = type { ptr, i32 }

; Function Attrs: nounwind uwtable
define i64 @OSQPMatrix_is_eq(ptr noundef %0, ptr noundef %1, double noundef %2) #0 {
  %4 = alloca ptr, align 8
  %5 = alloca ptr, align 8
  %6 = alloca double, align 8
  store ptr %0, ptr %4, align 8
  store ptr %1, ptr %5, align 8
  store double %2, ptr %6, align 8
  %7 = load ptr, ptr %4, align 8
  %8 = getelementptr inbounds %struct.OSQPMatrix_, ptr %7, i32 0, i32 1
  %9 = load i32, ptr %8, align 8
  %10 = load ptr, ptr %5, align 8
  %11 = getelementptr inbounds %struct.OSQPMatrix_, ptr %10, i32 0, i32 1
  %12 = load i32, ptr %11, align 8
  %13 = icmp eq i32 %9, %12
  br i1 %13, label %14, label %24

14:                                               ; preds = %3
  %15 = load ptr, ptr %4, align 8
  %16 = getelementptr inbounds %struct.OSQPMatrix_, ptr %15, i32 0, i32 0
  %17 = load ptr, ptr %16, align 8
  %18 = load ptr, ptr %5, align 8
  %19 = getelementptr inbounds %struct.OSQPMatrix_, ptr %18, i32 0, i32 0
  %20 = load ptr, ptr %19, align 8
  %21 = load double, ptr %6, align 8
  %22 = call i64 @csc_is_eq(ptr noundef %17, ptr noundef %20, double noundef %21)
  %23 = icmp ne i64 %22, 0
  br label %24

24:                                               ; preds = %14, %3
  %25 = phi i1 [ false, %3 ], [ %23, %14 ]
  %26 = zext i1 %25 to i32
  %27 = sext i32 %26 to i64
  ret i64 %27
}