; Function Attrs: nounwind uwtable
define i64 @OSQPMatrix_is_eq(ptr nocapture noundef readonly %0, ptr nocapture noundef readonly %1, double noundef %2) local_unnamed_addr #0 {
  %4 = getelementptr inbounds i8, ptr %0, i64 8
  %5 = load i32, ptr %4, align 8
  %6 = getelementptr inbounds i8, ptr %1, i64 8
  %7 = load i32, ptr %6, align 8
  %8 = icmp eq i32 %5, %7
  br i1 %8, label %9, label %15

9:                                                ; preds = %3
  %10 = load ptr, ptr %0, align 8
  %11 = load ptr, ptr %1, align 8
  %12 = tail call i64 @csc_is_eq(ptr noundef %10, ptr noundef %11, double noundef %2) #7
  %13 = icmp ne i64 %12, 0
  %14 = zext i1 %13 to i64
  br label %15

15:                                               ; preds = %9, %3
  %16 = phi i64 [ 0, %3 ], [ %14, %9 ]
  ret i64 %16
}